; Function Attrs: nounwind uwtable
define zeroext i8 @l___private_Lean_Elab_PreDefinition_PartialFixpoint_Eqns_0__Lean_Elab_PartialFixpoint_deltaLHSUntilFix___lambda__1(ptr noundef %0, ptr noundef %1, ptr noundef %2) local_unnamed_addr #0 {
  %4 = tail call zeroext i8 @lean_name_eq(ptr noundef %2, ptr noundef %0) #5
  %5 = icmp eq i8 %4, 0
  br i1 %5, label %6, label %8

6:                                                ; preds = %3
  %7 = tail call zeroext i8 @lean_name_eq(ptr noundef %2, ptr noundef %1) #5
  br label %8

8:                                                ; preds = %3, %6
  %.0 = phi i8 [ %7, %6 ], [ 1, %3 ]
  ret i8 %.0
}